; Function Attrs: mustprogress nounwind uwtable
define hidden noundef zeroext i1 @_ZN6hermes6parser6detail12JSParserImpl29checkComponentDeclarationFlowEv(ptr noundef nonnull align 8 dereferenceable(2752) %this) local_unnamed_addr #0 align 2 {
entry:
  %tok_.i = getelementptr inbounds nuw i8, ptr %this, i64 1144
  %0 = load ptr, ptr %tok_.i, align 8
  %1 = load i32, ptr %0, align 8
  %cmp.i = icmp eq i32 %1, 1
  br i1 %cmp.i, label %_ZNK6hermes6parser6detail12JSParserImpl5checkEPNS_12UniqueStringE.exit, label %return

_ZNK6hermes6parser6detail12JSParserImpl5checkEPNS_12UniqueStringE.exit: ; preds = %entry
  %componentIdent_ = getelementptr inbounds nuw i8, ptr %this, i64 1688
  %2 = load ptr, ptr %componentIdent_, align 8
  %ident_.i.i = getelementptr inbounds nuw i8, ptr %0, i64 32
  %3 = load ptr, ptr %ident_.i.i, align 8
  %cmp4.i = icmp eq ptr %3, %2
  br i1 %cmp4.i, label %if.end, label %return

if.end:                                           ; preds = %_ZNK6hermes6parser6detail12JSParserImpl5checkEPNS_12UniqueStringE.exit
  %lexer_ = getelementptr inbounds nuw i8, ptr %this, i64 16
  %call2 = tail call i64 @_ZN6hermes6parser7JSLexer10lookahead1ENS_8OptValueINS0_9TokenKindEEE(ptr noundef nonnull align 8 dereferenceable(1128) %lexer_, i64 0) #10
  %4 = and i64 %call2, 4294967296
  %tobool.i.not = icmp eq i64 %4, 0
  br i1 %tobool.i.not, label %return, label %land.rhs

land.rhs:                                         ; preds = %if.end
  %5 = and i64 %call2, 4294967295
  %cmp = icmp eq i64 %5, 1
  br label %return

return:                                           ; preds = %entry, %if.end, %land.rhs, %_ZNK6hermes6parser6detail12JSParserImpl5checkEPNS_12UniqueStringE.exit
  %retval.0 = phi i1 [ false, %_ZNK6hermes6parser6detail12JSParserImpl5checkEPNS_12UniqueStringE.exit ], [ false, %if.end ], [ %cmp, %land.rhs ], [ false, %entry ]
  ret i1 %retval.0
}